target datalayout = "e-m:e-p270:32:32-p271:32:32-p272:64:64-i64:64-i128:128-f80:128-n8:16:32:64-S128"
target triple = "x86_64-pc-linux-gnu"

%struct._packet_info = type { ptr, ptr, i32, i32, %struct.nstime_t, %struct.nstime_t, %struct.nstime_t, i8, ptr, ptr, ptr, ptr, %struct._address, %struct._address, %struct._address, %struct._address, %struct._address, %struct._address, i32, ptr, i8, [3 x i8], %struct.anon, i32, i32, i32, i32, ptr, i8, ptr, ptr, i16, i16, i32, i32, i16, i32, i32, ptr, ptr, ptr, i8, i8, i16, i16, i16, i32, i16, i16, ptr, ptr, ptr, ptr, ptr, i32, i32 }
%struct.nstime_t = type { i64, i32 }
%struct._address = type { i32, i32, ptr, ptr }
%struct.anon = type { i8, [3 x i8] }

@hf_tzoffset = internal global i32 0, align 4
@.str.699 = private unnamed_addr constant [15 x i8] c"%s east of UTC\00", align 1
@.str.700 = private unnamed_addr constant [15 x i8] c"%s west of UTC\00", align 1
@.str.701 = private unnamed_addr constant [7 x i8] c"at UTC\00", align 1

; Function Attrs: null_pointer_is_valid sspstrong uwtable
define internal i32 @add_tzoffset(ptr noundef %0, i32 noundef %1, i32 noundef %2, ptr noundef %3, ptr noundef %4, i32 noundef %5, i32 noundef %6, ptr noundef %7) #0 {
  %9 = alloca ptr, align 8
  %10 = alloca i32, align 4
  %11 = alloca i32, align 4
  %12 = alloca ptr, align 8
  %13 = alloca ptr, align 8
  %14 = alloca i32, align 4
  %15 = alloca i32, align 4
  %16 = alloca ptr, align 8
  %17 = alloca i16, align 2
  store ptr %0, ptr %9, align 8
  store i32 %1, ptr %10, align 4
  store i32 %2, ptr %11, align 4
  store ptr %3, ptr %12, align 8
  store ptr %4, ptr %13, align 8
  store i32 %5, ptr %14, align 4
  store i32 %6, ptr %15, align 4
  store ptr %7, ptr %16, align 8
  call void @llvm.lifetime.start.p0(i64 2, ptr %17) #7
  %18 = load ptr, ptr %9, align 8
  %19 = load i32, ptr %10, align 4
  %20 = call zeroext i16 @tvb_get_letohs(ptr noundef %18, i32 noundef %19)
  store i16 %20, ptr %17, align 2
  %21 = load i16, ptr %17, align 2
  %22 = sext i16 %21 to i32
  %23 = icmp slt i32 %22, 0
  br i1 %23, label %24, label %40

24:                                               ; preds = %8
  %25 = load ptr, ptr %13, align 8
  %26 = load i32, ptr @hf_tzoffset, align 4
  %27 = load ptr, ptr %9, align 8
  %28 = load i32, ptr %10, align 4
  %29 = load i16, ptr %17, align 2
  %30 = sext i16 %29 to i32
  %31 = load ptr, ptr %12, align 8
  %32 = getelementptr inbounds nuw %struct._packet_info, ptr %31, i32 0, i32 51
  %33 = load ptr, ptr %32, align 8
  %34 = load i16, ptr %17, align 2
  %35 = sext i16 %34 to i32
  %36 = sub i32 0, %35
  %37 = mul i32 %36, 60
  %38 = call ptr @signed_time_secs_to_str(ptr noundef %33, i32 noundef %37)
  %39 = call ptr (ptr, i32, ptr, i32, i32, i32, ptr, ...) @proto_tree_add_int_format_value(ptr noundef %25, i32 noundef %26, ptr noundef %27, i32 noundef %28, i32 noundef 2, i32 noundef %30, ptr noundef @.str.699, ptr noundef %38)
  br label %68

40:                                               ; preds = %8
  %41 = load i16, ptr %17, align 2
  %42 = sext i16 %41 to i32
  %43 = icmp sgt i32 %42, 0
  br i1 %43, label %44, label %59

44:                                               ; preds = %40
  %45 = load ptr, ptr %13, align 8
  %46 = load i32, ptr @hf_tzoffset, align 4
  %47 = load ptr, ptr %9, align 8
  %48 = load i32, ptr %10, align 4
  %49 = load i16, ptr %17, align 2
  %50 = sext i16 %49 to i32
  %51 = load ptr, ptr %12, align 8
  %52 = getelementptr inbounds nuw %struct._packet_info, ptr %51, i32 0, i32 51
  %53 = load ptr, ptr %52, align 8
  %54 = load i16, ptr %17, align 2
  %55 = sext i16 %54 to i32
  %56 = mul i32 %55, 60
  %57 = call ptr @signed_time_secs_to_str(ptr noundef %53, i32 noundef %56)
  %58 = call ptr (ptr, i32, ptr, i32, i32, i32, ptr, ...) @proto_tree_add_int_format_value(ptr noundef %45, i32 noundef %46, ptr noundef %47, i32 noundef %48, i32 noundef 2, i32 noundef %50, ptr noundef @.str.700, ptr noundef %57)
  br label %67

59:                                               ; preds = %40
  %60 = load ptr, ptr %13, align 8
  %61 = load i32, ptr @hf_tzoffset, align 4
  %62 = load ptr, ptr %9, align 8
  %63 = load i32, ptr %10, align 4
  %64 = load i16, ptr %17, align 2
  %65 = sext i16 %64 to i32
  %66 = call ptr (ptr, i32, ptr, i32, i32, i32, ptr, ...) @proto_tree_add_int_format_value(ptr noundef %60, i32 noundef %61, ptr noundef %62, i32 noundef %63, i32 noundef 2, i32 noundef %65, ptr noundef @.str.701)
  br label %67

67:                                               ; preds = %59, %44
  br label %68

68:                                               ; preds = %67, %24
  %69 = load i32, ptr %10, align 4
  %70 = add i32 %69, 2
  store i32 %70, ptr %10, align 4
  %71 = load i32, ptr %10, align 4
  call void @llvm.lifetime.end.p0(i64 2, ptr %17) #7
  ret i32 %71
}