; Function Attrs: null_pointer_is_valid sspstrong uwtable
define internal noundef i32 @add_tzoffset(ptr noundef %0, i32 noundef %1, i32 %2, ptr noundef readonly captures(none) %3, ptr noundef %4, i32 %5, i32 %6, ptr readnone captures(none) %7) #0 {
  %9 = tail call zeroext i16 @tvb_get_letohs(ptr noundef %0, i32 noundef %1)
  %10 = sext i16 %9 to i32
  %11 = icmp slt i16 %9, 0
  br i1 %11, label %12, label %19

12:                                               ; preds = %8
  %13 = load i32, ptr @hf_tzoffset, align 4
  %14 = getelementptr inbounds nuw i8, ptr %3, i64 408
  %15 = load ptr, ptr %14, align 8
  %16 = mul nsw i32 %10, -60
  %17 = tail call ptr @signed_time_secs_to_str(ptr noundef %15, i32 noundef %16)
  %18 = tail call ptr (ptr, i32, ptr, i32, i32, i32, ptr, ...) @proto_tree_add_int_format_value(ptr noundef %4, i32 noundef %13, ptr noundef %0, i32 noundef %1, i32 noundef 2, i32 noundef %10, ptr noundef nonnull @.str.699, ptr noundef %17)
  br label %29

19:                                               ; preds = %8
  %.not = icmp eq i16 %9, 0
  %20 = load i32, ptr @hf_tzoffset, align 4
  br i1 %.not, label %27, label %21

21:                                               ; preds = %19
  %22 = getelementptr inbounds nuw i8, ptr %3, i64 408
  %23 = load ptr, ptr %22, align 8
  %24 = mul nuw nsw i32 %10, 60
  %25 = tail call ptr @signed_time_secs_to_str(ptr noundef %23, i32 noundef %24)
  %26 = tail call ptr (ptr, i32, ptr, i32, i32, i32, ptr, ...) @proto_tree_add_int_format_value(ptr noundef %4, i32 noundef %20, ptr noundef %0, i32 noundef %1, i32 noundef 2, i32 noundef %10, ptr noundef nonnull @.str.700, ptr noundef %25)
  br label %29

27:                                               ; preds = %19
  %28 = tail call ptr (ptr, i32, ptr, i32, i32, i32, ptr, ...) @proto_tree_add_int_format_value(ptr noundef %4, i32 noundef %20, ptr noundef %0, i32 noundef %1, i32 noundef 2, i32 noundef 0, ptr noundef nonnull @.str.701)
  br label %29

29:                                               ; preds = %21, %27, %12
  %30 = add i32 %1, 2
  ret i32 %30
}